target datalayout = "e-m:e-p270:32:32-p271:32:32-p272:64:64-i64:64-i128:128-f80:128-n8:16:32:64-S128"
target triple = "x86_64-pc-linux-gnu"

%union.pthread_mutex_t = type { %struct.__pthread_mutex_s }
%struct.__pthread_mutex_s = type { i32, i32, i32, i32, i32, i16, i16, %struct.__pthread_internal_list }
%struct.__pthread_internal_list = type { ptr, ptr }
%struct.wolfSSL_RefWithMutex = type { %union.pthread_mutex_t, i32 }
%struct.WOLFSSL_CTX = type <{ ptr, %struct.wolfSSL_RefWithMutex, i32, [4 x i8], %struct.WOLFSSL_BUFFER_INFO, %struct.WOLFSSL_BUFFER_INFO, ptr, ptr, i32, [4 x i8], ptr, i8, i8, [2 x i8], i32, i32, [4 x i8], ptr, ptr, ptr, i8, i16, i8, i8, i8, i16, i16, i16, i16, [2 x i8], i64, ptr, ptr, ptr, ptr, i32, i32, i16, [2 x i8], i32, [10 x i16], i8, [3 x i8], ptr, ptr, i32, [4 x i8], ptr, i8, [7 x i8] }>
%struct.WOLFSSL_BUFFER_INFO = type { ptr, i32 }

; Function Attrs: nounwind uwtable
define i32 @wolfSSL_CTX_UseSNI(ptr noundef %0, i8 noundef zeroext %1, ptr noundef %2, i16 noundef zeroext %3) #0 {
  %5 = alloca i32, align 4
  %6 = alloca ptr, align 8
  %7 = alloca i8, align 1
  %8 = alloca ptr, align 8
  %9 = alloca i16, align 2
  store ptr %0, ptr %6, align 8, !tbaa !24
  store i8 %1, ptr %7, align 1, !tbaa !20
  store ptr %2, ptr %8, align 8, !tbaa !3
  store i16 %3, ptr %9, align 2, !tbaa !94
  %10 = load ptr, ptr %6, align 8, !tbaa !24
  %11 = icmp eq ptr %10, null
  br i1 %11, label %12, label %13

12:                                               ; preds = %4
  store i32 -173, ptr %5, align 4
  br label %23

13:                                               ; preds = %4
  %14 = load ptr, ptr %6, align 8, !tbaa !24
  %15 = getelementptr inbounds nuw %struct.WOLFSSL_CTX, ptr %14, i32 0, i32 47
  %16 = load i8, ptr %7, align 1, !tbaa !20
  %17 = load ptr, ptr %8, align 8, !tbaa !3
  %18 = load i16, ptr %9, align 2, !tbaa !94
  %19 = load ptr, ptr %6, align 8, !tbaa !24
  %20 = getelementptr inbounds nuw %struct.WOLFSSL_CTX, ptr %19, i32 0, i32 19
  %21 = load ptr, ptr %20, align 8, !tbaa !136
  %22 = call i32 @TLSX_UseSNI(ptr noundef %15, i8 noundef zeroext %16, ptr noundef %17, i16 noundef zeroext %18, ptr noundef %21)
  store i32 %22, ptr %5, align 4
  br label %23

23:                                               ; preds = %13, %12
  %24 = load i32, ptr %5, align 4
  ret i32 %24
}