; Function Attrs: nounwind uwtable
define i32 @wolfSSL_CTX_UseSNI(ptr noundef %0, i8 noundef zeroext %1, ptr noundef %2, i16 noundef zeroext %3) local_unnamed_addr #0 {
  %5 = icmp eq ptr %0, null
  br i1 %5, label %11, label %6

6:                                                ; preds = %4
  %7 = getelementptr inbounds nuw i8, ptr %0, i64 288
  %8 = getelementptr inbounds nuw i8, ptr %0, i64 160
  %9 = load ptr, ptr %8, align 8, !tbaa !116
  %10 = tail call i32 @TLSX_UseSNI(ptr noundef nonnull %7, i8 noundef zeroext %1, ptr noundef %2, i16 noundef zeroext %3, ptr noundef %9) #22
  br label %11

11:                                               ; preds = %4, %6
  %.0 = phi i32 [ %10, %6 ], [ -173, %4 ]
  ret i32 %.0
}